target datalayout = "e-m:e-p270:32:32-p271:32:32-p272:64:64-i64:64-i128:128-f80:128-n8:16:32:64-S128"
target triple = "x86_64-pc-linux-gnu"

%struct.Ivy_Obj_t_ = type { i32, i32, i32, i32, ptr, ptr, ptr, ptr, ptr, ptr, ptr, ptr }
%struct.Ivy_FraigList_t_ = type { ptr, ptr, i32 }

; Function Attrs: inlinehint nounwind uwtable
define internal void @Ivy_ObjSetEquivListNext(ptr noundef %0, ptr noundef %1) #4 {
  %3 = alloca ptr, align 8
  %4 = alloca ptr, align 8
  store ptr %0, ptr %3, align 8, !tbaa !72
  store ptr %1, ptr %4, align 8, !tbaa !72
  %5 = load ptr, ptr %4, align 8, !tbaa !72
  %6 = load ptr, ptr %3, align 8, !tbaa !72
  %7 = getelementptr inbounds nuw %struct.Ivy_Obj_t_, ptr %6, i32 0, i32 9
  store ptr %5, ptr %7, align 8, !tbaa !125
  ret void
}

; Function Attrs: inlinehint nounwind uwtable
define internal void @Ivy_ObjSetEquivListPrev(ptr noundef %0, ptr noundef %1) #4 {
  %3 = alloca ptr, align 8
  %4 = alloca ptr, align 8
  store ptr %0, ptr %3, align 8, !tbaa !72
  store ptr %1, ptr %4, align 8, !tbaa !72
  %5 = load ptr, ptr %4, align 8, !tbaa !72
  %6 = load ptr, ptr %3, align 8, !tbaa !72
  %7 = getelementptr inbounds nuw %struct.Ivy_Obj_t_, ptr %6, i32 0, i32 10
  store ptr %5, ptr %7, align 8, !tbaa !124
  ret void
}

; Function Attrs: nounwind uwtable
define void @Ivy_FraigAddClass(ptr noundef %0, ptr noundef %1) #0 {
  %3 = alloca ptr, align 8
  %4 = alloca ptr, align 8
  store ptr %0, ptr %3, align 8, !tbaa !168
  store ptr %1, ptr %4, align 8, !tbaa !72
  %5 = load ptr, ptr %3, align 8, !tbaa !168
  %6 = getelementptr inbounds nuw %struct.Ivy_FraigList_t_, ptr %5, i32 0, i32 0
  %7 = load ptr, ptr %6, align 8, !tbaa !170
  %8 = icmp eq ptr %7, null
  br i1 %8, label %9, label %18

9:                                                ; preds = %2
  %10 = load ptr, ptr %4, align 8, !tbaa !72
  %11 = load ptr, ptr %3, align 8, !tbaa !168
  %12 = getelementptr inbounds nuw %struct.Ivy_FraigList_t_, ptr %11, i32 0, i32 0
  store ptr %10, ptr %12, align 8, !tbaa !170
  %13 = load ptr, ptr %4, align 8, !tbaa !72
  %14 = load ptr, ptr %3, align 8, !tbaa !168
  %15 = getelementptr inbounds nuw %struct.Ivy_FraigList_t_, ptr %14, i32 0, i32 1
  store ptr %13, ptr %15, align 8, !tbaa !171
  %16 = load ptr, ptr %4, align 8, !tbaa !72
  call void @Ivy_ObjSetEquivListPrev(ptr noundef %16, ptr noundef null)
  %17 = load ptr, ptr %4, align 8, !tbaa !72
  call void @Ivy_ObjSetEquivListNext(ptr noundef %17, ptr noundef null)
  br label %31

18:                                               ; preds = %2
  %19 = load ptr, ptr %3, align 8, !tbaa !168
  %20 = getelementptr inbounds nuw %struct.Ivy_FraigList_t_, ptr %19, i32 0, i32 1
  %21 = load ptr, ptr %20, align 8, !tbaa !171
  %22 = load ptr, ptr %4, align 8, !tbaa !72
  call void @Ivy_ObjSetEquivListNext(ptr noundef %21, ptr noundef %22)
  %23 = load ptr, ptr %4, align 8, !tbaa !72
  %24 = load ptr, ptr %3, align 8, !tbaa !168
  %25 = getelementptr inbounds nuw %struct.Ivy_FraigList_t_, ptr %24, i32 0, i32 1
  %26 = load ptr, ptr %25, align 8, !tbaa !171
  call void @Ivy_ObjSetEquivListPrev(ptr noundef %23, ptr noundef %26)
  %27 = load ptr, ptr %4, align 8, !tbaa !72
  call void @Ivy_ObjSetEquivListNext(ptr noundef %27, ptr noundef null)
  %28 = load ptr, ptr %4, align 8, !tbaa !72
  %29 = load ptr, ptr %3, align 8, !tbaa !168
  %30 = getelementptr inbounds nuw %struct.Ivy_FraigList_t_, ptr %29, i32 0, i32 1
  store ptr %28, ptr %30, align 8, !tbaa !171
  br label %31

31:                                               ; preds = %18, %9
  %32 = load ptr, ptr %3, align 8, !tbaa !168
  %33 = getelementptr inbounds nuw %struct.Ivy_FraigList_t_, ptr %32, i32 0, i32 2
  %34 = load i32, ptr %33, align 8, !tbaa !172
  %35 = add nsw i32 %34, 1
  store i32 %35, ptr %33, align 8, !tbaa !172
  ret void
}