; Function Attrs: mustprogress nofree norecurse nosync nounwind willreturn memory(write, argmem: readwrite, inaccessiblemem: none) uwtable
define void @Ivy_FraigAddClass(ptr noundef captures(none) %0, ptr noundef %1) local_unnamed_addr #12 {
  %3 = load ptr, ptr %0, align 8, !tbaa !180
  %4 = icmp eq ptr %3, null
  br i1 %4, label %5, label %7

5:                                                ; preds = %2
  store ptr %1, ptr %0, align 8, !tbaa !180
  %6 = getelementptr inbounds nuw i8, ptr %0, i64 8
  store ptr %1, ptr %6, align 8, !tbaa !181
  br label %11

7:                                                ; preds = %2
  %8 = getelementptr inbounds nuw i8, ptr %0, i64 8
  %9 = load ptr, ptr %8, align 8, !tbaa !181
  %10 = getelementptr inbounds nuw i8, ptr %9, i64 56
  store ptr %1, ptr %10, align 8, !tbaa !182
  store ptr %1, ptr %8, align 8, !tbaa !181
  br label %11

11:                                               ; preds = %7, %5
  %.sink = phi ptr [ null, %5 ], [ %9, %7 ]
  %12 = getelementptr inbounds nuw i8, ptr %1, i64 64
  store ptr %.sink, ptr %12, align 8, !tbaa !183
  %13 = getelementptr inbounds nuw i8, ptr %1, i64 56
  store ptr null, ptr %13, align 8, !tbaa !182
  %14 = getelementptr inbounds nuw i8, ptr %0, i64 16
  %15 = load i32, ptr %14, align 8, !tbaa !184
  %16 = add nsw i32 %15, 1
  store i32 %16, ptr %14, align 8, !tbaa !184
  ret void
}